; Function Attrs: nofree norecurse nosync nounwind memory(readwrite, inaccessiblemem: none) uwtable
define void @Cnf_CutUpdateRefs(ptr noundef readonly captures(none) %0, ptr noundef readonly captures(none) %1, ptr noundef readonly captures(none) %2, ptr noundef readonly captures(none) %3) local_unnamed_addr #6 {
  %5 = getelementptr inbounds nuw i8, ptr %1, i64 24
  %6 = load i8, ptr %1, align 8, !tbaa !15
  %7 = icmp sgt i8 %6, 0
  br i1 %7, label %.lr.ph.i, label %Cnf_CutDeref.exit

.lr.ph.i:                                         ; preds = %4, %16
  %indvars.iv.i = phi i64 [ %indvars.iv.next.i, %16 ], [ 0, %4 ]
  %8 = load ptr, ptr %0, align 8, !tbaa !30
  %9 = getelementptr i8, ptr %8, i64 32
  %.val.i = load ptr, ptr %9, align 8, !tbaa !31
  %.not.i.i = icmp eq ptr %.val.i, null
  br i1 %.not.i.i, label %Cnf_CutDeref.exit, label %Aig_ManObj.exit.i

Aig_ManObj.exit.i:                                ; preds = %.lr.ph.i
  %10 = getelementptr inbounds nuw [0 x i32], ptr %5, i64 0, i64 %indvars.iv.i
  %11 = load i32, ptr %10, align 4, !tbaa !26
  %12 = getelementptr i8, ptr %.val.i, i64 8
  %.val.i.i = load ptr, ptr %12, align 8, !tbaa !40
  %13 = sext i32 %11 to i64
  %14 = getelementptr inbounds ptr, ptr %.val.i.i, i64 %13
  %15 = load ptr, ptr %14, align 8, !tbaa !42
  %.not.i = icmp eq ptr %15, null
  br i1 %.not.i, label %Cnf_CutDeref.exit, label %16

16:                                               ; preds = %Aig_ManObj.exit.i
  %17 = getelementptr inbounds nuw i8, ptr %15, i64 24
  %18 = load i64, ptr %17, align 8
  %19 = add i64 %18, 4294967232
  %20 = and i64 %19, 4294967232
  %21 = and i64 %18, -4294967233
  %22 = or disjoint i64 %20, %21
  store i64 %22, ptr %17, align 8
  %indvars.iv.next.i = add nuw nsw i64 %indvars.iv.i, 1
  %23 = load i8, ptr %1, align 8, !tbaa !15
  %24 = sext i8 %23 to i64
  %25 = icmp slt i64 %indvars.iv.next.i, %24
  br i1 %25, label %.lr.ph.i, label %Cnf_CutDeref.exit, !llvm.loop !43

Cnf_CutDeref.exit:                                ; preds = %.lr.ph.i, %Aig_ManObj.exit.i, %16, %4
  %26 = getelementptr inbounds nuw i8, ptr %2, i64 24
  %27 = load i8, ptr %2, align 8, !tbaa !15
  %28 = icmp sgt i8 %27, 0
  br i1 %28, label %.lr.ph.i6, label %Cnf_CutDeref.exit14

.lr.ph.i6:                                        ; preds = %Cnf_CutDeref.exit, %37
  %indvars.iv.i7 = phi i64 [ %indvars.iv.next.i13, %37 ], [ 0, %Cnf_CutDeref.exit ]
  %29 = load ptr, ptr %0, align 8, !tbaa !30
  %30 = getelementptr i8, ptr %29, i64 32
  %.val.i8 = load ptr, ptr %30, align 8, !tbaa !31
  %.not.i.i9 = icmp eq ptr %.val.i8, null
  br i1 %.not.i.i9, label %Cnf_CutDeref.exit14, label %Aig_ManObj.exit.i10

Aig_ManObj.exit.i10:                              ; preds = %.lr.ph.i6
  %31 = getelementptr inbounds nuw [0 x i32], ptr %26, i64 0, i64 %indvars.iv.i7
  %32 = load i32, ptr %31, align 4, !tbaa !26
  %33 = getelementptr i8, ptr %.val.i8, i64 8
  %.val.i.i11 = load ptr, ptr %33, align 8, !tbaa !40
  %34 = sext i32 %32 to i64
  %35 = getelementptr inbounds ptr, ptr %.val.i.i11, i64 %34
  %36 = load ptr, ptr %35, align 8, !tbaa !42
  %.not.i12 = icmp eq ptr %36, null
  br i1 %.not.i12, label %Cnf_CutDeref.exit14, label %37

37:                                               ; preds = %Aig_ManObj.exit.i10
  %38 = getelementptr inbounds nuw i8, ptr %36, i64 24
  %39 = load i64, ptr %38, align 8
  %40 = add i64 %39, 4294967232
  %41 = and i64 %40, 4294967232
  %42 = and i64 %39, -4294967233
  %43 = or disjoint i64 %41, %42
  store i64 %43, ptr %38, align 8
  %indvars.iv.next.i13 = add nuw nsw i64 %indvars.iv.i7, 1
  %44 = load i8, ptr %2, align 8, !tbaa !15
  %45 = sext i8 %44 to i64
  %46 = icmp slt i64 %indvars.iv.next.i13, %45
  br i1 %46, label %.lr.ph.i6, label %Cnf_CutDeref.exit14, !llvm.loop !43

Cnf_CutDeref.exit14:                              ; preds = %.lr.ph.i6, %Aig_ManObj.exit.i10, %37, %Cnf_CutDeref.exit
  %47 = getelementptr inbounds nuw i8, ptr %3, i64 24
  %48 = load i8, ptr %3, align 8, !tbaa !15
  %49 = icmp sgt i8 %48, 0
  br i1 %49, label %.lr.ph.i15, label %Cnf_CutRef.exit

.lr.ph.i15:                                       ; preds = %Cnf_CutDeref.exit14, %58
  %indvars.iv.i16 = phi i64 [ %indvars.iv.next.i22, %58 ], [ 0, %Cnf_CutDeref.exit14 ]
  %50 = load ptr, ptr %0, align 8, !tbaa !30
  %51 = getelementptr i8, ptr %50, i64 32
  %.val.i17 = load ptr, ptr %51, align 8, !tbaa !31
  %.not.i.i18 = icmp eq ptr %.val.i17, null
  br i1 %.not.i.i18, label %Cnf_CutRef.exit, label %Aig_ManObj.exit.i19

Aig_ManObj.exit.i19:                              ; preds = %.lr.ph.i15
  %52 = getelementptr inbounds nuw [0 x i32], ptr %47, i64 0, i64 %indvars.iv.i16
  %53 = load i32, ptr %52, align 4, !tbaa !26
  %54 = getelementptr i8, ptr %.val.i17, i64 8
  %.val.i.i20 = load ptr, ptr %54, align 8, !tbaa !40
  %55 = sext i32 %53 to i64
  %56 = getelementptr inbounds ptr, ptr %.val.i.i20, i64 %55
  %57 = load ptr, ptr %56, align 8, !tbaa !42
  %.not.i21 = icmp eq ptr %57, null
  br i1 %.not.i21, label %Cnf_CutRef.exit, label %58

58:                                               ; preds = %Aig_ManObj.exit.i19
  %59 = getelementptr inbounds nuw i8, ptr %57, i64 24
  %60 = load i64, ptr %59, align 8
  %61 = add i64 %60, 64
  %62 = and i64 %61, 4294967232
  %63 = and i64 %60, -4294967233
  %64 = or disjoint i64 %62, %63
  store i64 %64, ptr %59, align 8
  %indvars.iv.next.i22 = add nuw nsw i64 %indvars.iv.i16, 1
  %65 = load i8, ptr %3, align 8, !tbaa !15
  %66 = sext i8 %65 to i64
  %67 = icmp slt i64 %indvars.iv.next.i22, %66
  br i1 %67, label %.lr.ph.i15, label %Cnf_CutRef.exit, !llvm.loop !44

Cnf_CutRef.exit:                                  ; preds = %.lr.ph.i15, %Aig_ManObj.exit.i19, %58, %Cnf_CutDeref.exit14
  ret void
}